target datalayout = "e-m:e-p270:32:32-p271:32:32-p272:64:64-i64:64-i128:128-f80:128-n8:16:32:64-S128"
target triple = "x86_64-unknown-linux-gnu"

; Function Attrs: mustprogress nounwind uwtable
define internal noundef ptr @_ZN19OpenColorIO_v2_4dev12_GLOBAL__N_120GetConvertInBitDepthILNS_8BitDepthE8EEEPFvPKfS4_S4_iPKvPvlES2_(i32 noundef %outBD) #5 {
entry:
  %retval = alloca ptr, align 8
  %outBD.addr = alloca i32, align 4
  store i32 %outBD, ptr %outBD.addr, align 4
  %0 = load i32, ptr %outBD.addr, align 4
  switch i32 %0, label %sw.default [
    i32 1, label %sw.bb
    i32 2, label %sw.bb1
    i32 3, label %sw.bb2
    i32 5, label %sw.bb3
    i32 7, label %sw.bb4
    i32 8, label %sw.bb5
    i32 4, label %sw.bb6
    i32 6, label %sw.bb6
    i32 0, label %sw.bb6
  ]

sw.bb:                                            ; preds = %entry
  store ptr @_ZN19OpenColorIO_v2_4dev12_GLOBAL__N_18linear1DILNS_8BitDepthE8ELS2_1EEEvPKfS4_S4_iPKvPvl, ptr %retval, align 8
  br label %return

sw.bb1:                                           ; preds = %entry
  store ptr @_ZN19OpenColorIO_v2_4dev12_GLOBAL__N_18linear1DILNS_8BitDepthE8ELS2_2EEEvPKfS4_S4_iPKvPvl, ptr %retval, align 8
  br label %return

sw.bb2:                                           ; preds = %entry
  store ptr @_ZN19OpenColorIO_v2_4dev12_GLOBAL__N_18linear1DILNS_8BitDepthE8ELS2_3EEEvPKfS4_S4_iPKvPvl, ptr %retval, align 8
  br label %return

sw.bb3:                                           ; preds = %entry
  store ptr @_ZN19OpenColorIO_v2_4dev12_GLOBAL__N_18linear1DILNS_8BitDepthE8ELS2_5EEEvPKfS4_S4_iPKvPvl, ptr %retval, align 8
  br label %return

sw.bb4:                                           ; preds = %entry
  store ptr @_ZN19OpenColorIO_v2_4dev12_GLOBAL__N_18linear1DILNS_8BitDepthE8ELS2_7EEEvPKfS4_S4_iPKvPvl, ptr %retval, align 8
  br label %return

sw.bb5:                                           ; preds = %entry
  store ptr @_ZN19OpenColorIO_v2_4dev12_GLOBAL__N_18linear1DILNS_8BitDepthE8ELS2_8EEEvPKfS4_S4_iPKvPvl, ptr %retval, align 8
  br label %return

sw.bb6:                                           ; preds = %entry, %entry, %entry
  br label %sw.default

sw.default:                                       ; preds = %sw.bb6, %entry
  br label %sw.epilog

sw.epilog:                                        ; preds = %sw.default
  store ptr null, ptr %retval, align 8
  br label %return

return:                                           ; preds = %sw.epilog, %sw.bb5, %sw.bb4, %sw.bb3, %sw.bb2, %sw.bb1, %sw.bb
  %1 = load ptr, ptr %retval, align 8
  ret ptr %1
}

; Function Attrs: mustprogress uwtable
define hidden noundef ptr @_ZN19OpenColorIO_v2_4dev21SSE2GetLut1DApplyFuncENS_8BitDepthES0_(i32 noundef %inBD, i32 noundef %outBD) #4 {
entry:
  %retval = alloca ptr, align 8
  %inBD.addr = alloca i32, align 4
  %outBD.addr = alloca i32, align 4
  store i32 %inBD, ptr %inBD.addr, align 4
  store i32 %outBD, ptr %outBD.addr, align 4
  %0 = load i32, ptr %inBD.addr, align 4
  switch i32 %0, label %sw.default [
    i32 1, label %sw.bb
    i32 2, label %sw.bb
    i32 3, label %sw.bb
    i32 5, label %sw.bb
    i32 7, label %sw.bb
    i32 8, label %sw.bb1
    i32 4, label %sw.bb2
    i32 6, label %sw.bb2
    i32 0, label %sw.bb2
  ]

sw.bb:                                            ; preds = %entry, %entry, %entry, %entry, %entry
  br label %sw.epilog

sw.bb1:                                           ; preds = %entry
  %1 = load i32, ptr %outBD.addr, align 4
  %call = call noundef ptr @_ZN19OpenColorIO_v2_4dev12_GLOBAL__N_120GetConvertInBitDepthILNS_8BitDepthE8EEEPFvPKfS4_S4_iPKvPvlES2_(i32 noundef %1)
  store ptr %call, ptr %retval, align 8
  br label %return

sw.bb2:                                           ; preds = %entry, %entry, %entry
  br label %sw.default

sw.default:                                       ; preds = %sw.bb2, %entry
  br label %sw.epilog

sw.epilog:                                        ; preds = %sw.default, %sw.bb
  store ptr null, ptr %retval, align 8
  br label %return

return:                                           ; preds = %sw.epilog, %sw.bb1
  %2 = load ptr, ptr %retval, align 8
  ret ptr %2
}