; Function Attrs: mustprogress nofree norecurse nosync nounwind willreturn memory(none) uwtable
define hidden noundef ptr @_ZN19OpenColorIO_v2_4dev21SSE2GetLut1DApplyFuncENS_8BitDepthES0_(i32 noundef %inBD, i32 noundef %outBD) local_unnamed_addr #3 {
entry:
  %cond = icmp eq i32 %inBD, 8
  br i1 %cond, label %sw.bb1, label %return

sw.bb1:                                           ; preds = %entry
  %switch.tableidx = add i32 %outBD, -1
  %0 = icmp ult i32 %switch.tableidx, 8
  br i1 %0, label %switch.lookup, label %return

switch.lookup:                                    ; preds = %sw.bb1
  %1 = zext nneg i32 %switch.tableidx to i64
  %switch.gep = getelementptr inbounds nuw [8 x ptr], ptr @switch.table._ZN19OpenColorIO_v2_4dev21SSE2GetLut1DApplyFuncENS_8BitDepthES0_, i64 0, i64 %1
  %switch.load = load ptr, ptr %switch.gep, align 8
  br label %return

return:                                           ; preds = %sw.bb1, %switch.lookup, %entry
  %retval.0 = phi ptr [ null, %entry ], [ %switch.load, %switch.lookup ], [ null, %sw.bb1 ]
  ret ptr %retval.0
}